; Function Attrs: mustprogress uwtable
define internal void @_ZN5faiss12_GLOBAL__N_112IVFPQScannerILNS_10MetricTypeE0ENS_4CMinIflEENS_11PQDecoder16ELb1EE8set_listElf(ptr noundef nonnull align 8 captures(none) dereferenceable(264) initializes((8, 16), (176, 188)) %0, i64 noundef %1, float noundef %2) unnamed_addr #2 align 2 {
  %4 = getelementptr inbounds nuw i8, ptr %0, i64 8
  store i64 %1, ptr %4, align 8, !tbaa !77
  %5 = getelementptr inbounds nuw i8, ptr %0, i64 40
  %6 = getelementptr inbounds nuw i8, ptr %0, i64 252
  %7 = load i32, ptr %6, align 4, !tbaa !103
  %8 = getelementptr inbounds nuw i8, ptr %0, i64 176
  store i64 %1, ptr %8, align 8, !tbaa !176
  %9 = getelementptr inbounds nuw i8, ptr %0, i64 184
  store float %2, ptr %9, align 8, !tbaa !177
  switch i32 %7, label %_ZN5faiss12_GLOBAL__N_113IVFPQScannerTIlLNS_10MetricTypeE0ENS_11PQDecoder16EE9init_listElfi.exit [
    i32 2, label %10
    i32 1, label %12
  ]

10:                                               ; preds = %3
  %11 = tail call fastcc noundef float @_ZN5faiss12_GLOBAL__N_111QueryTables22precompute_list_tablesEv(ptr noundef nonnull align 8 dereferenceable(212) %5)
  br label %.sink.split.i

12:                                               ; preds = %3
  %13 = tail call fastcc noundef float @_ZN5faiss12_GLOBAL__N_111QueryTables30precompute_list_table_pointersEv(ptr noundef nonnull align 8 dereferenceable(212) %5)
  br label %.sink.split.i

.sink.split.i:                                    ; preds = %12, %10
  %.sink.i = phi float [ %13, %12 ], [ %11, %10 ]
  %14 = getelementptr inbounds nuw i8, ptr %0, i64 248
  store float %.sink.i, ptr %14, align 8, !tbaa !1205
  br label %_ZN5faiss12_GLOBAL__N_113IVFPQScannerTIlLNS_10MetricTypeE0ENS_11PQDecoder16EE9init_listElfi.exit

_ZN5faiss12_GLOBAL__N_113IVFPQScannerTIlLNS_10MetricTypeE0ENS_11PQDecoder16EE9init_listElfi.exit: ; preds = %3, %.sink.split.i
  ret void
}